target datalayout = "e-m:e-p270:32:32-p271:32:32-p272:64:64-i64:64-i128:128-f80:128-n8:16:32:64-S128"
target triple = "x86_64-pc-linux-gnu"

%struct.strbuf = type { i64, i64, ptr }
%struct.key_value_info = type { ptr, i32, i32, i32, ptr }

@.str.50 = private unnamed_addr constant [10 x i8] c"def_param\00", align 1
@__const.fn_param_fl.buf_payload = private unnamed_addr constant %struct.strbuf { i64 0, i64 0, ptr @strbuf_slopbuf }, align 8
@__const.fn_param_fl.scope_payload = private unnamed_addr constant %struct.strbuf { i64 0, i64 0, ptr @strbuf_slopbuf }, align 8
@.str.51 = private unnamed_addr constant [4 x i8] c":%s\00", align 1
@.str.52 = private unnamed_addr constant [6 x i8] c"%s:%s\00", align 1
@.str.53 = private unnamed_addr constant [6 x i8] c"scope\00", align 1

; Function Attrs: inlinehint nounwind uwtable
define internal void @strbuf_addstr(ptr noundef %0, ptr noundef %1) #4 {
  %3 = alloca ptr, align 8
  %4 = alloca ptr, align 8
  store ptr %0, ptr %3, align 8, !tbaa !81
  store ptr %1, ptr %4, align 8, !tbaa !8
  %5 = load ptr, ptr %3, align 8, !tbaa !81
  %6 = load ptr, ptr %4, align 8, !tbaa !8
  %7 = load ptr, ptr %4, align 8, !tbaa !8
  %8 = call i64 @strlen(ptr noundef %7) #10
  call void @strbuf_add(ptr noundef %5, ptr noundef %6, i64 noundef %8)
  ret void
}

; Function Attrs: nounwind uwtable
define internal void @fn_param_fl(ptr noundef %0, i32 noundef %1, ptr noundef %2, ptr noundef %3, ptr noundef %4) #0 {
  %6 = alloca ptr, align 8
  %7 = alloca i32, align 4
  %8 = alloca ptr, align 8
  %9 = alloca ptr, align 8
  %10 = alloca ptr, align 8
  %11 = alloca ptr, align 8
  %12 = alloca %struct.strbuf, align 8
  %13 = alloca %struct.strbuf, align 8
  %14 = alloca i32, align 4
  %15 = alloca ptr, align 8
  store ptr %0, ptr %6, align 8, !tbaa !8
  store i32 %1, ptr %7, align 4, !tbaa !4
  store ptr %2, ptr %8, align 8, !tbaa !8
  store ptr %3, ptr %9, align 8, !tbaa !8
  store ptr %4, ptr %10, align 8, !tbaa !28
  call void @llvm.lifetime.start.p0(i64 8, ptr %11) #9
  store ptr @.str.50, ptr %11, align 8, !tbaa !8
  call void @llvm.lifetime.start.p0(i64 24, ptr %12) #9
  call void @llvm.memcpy.p0.p0.i64(ptr align 8 %12, ptr align 8 @__const.fn_param_fl.buf_payload, i64 24, i1 false)
  call void @llvm.lifetime.start.p0(i64 24, ptr %13) #9
  call void @llvm.memcpy.p0.p0.i64(ptr align 8 %13, ptr align 8 @__const.fn_param_fl.scope_payload, i64 24, i1 false)
  call void @llvm.lifetime.start.p0(i64 4, ptr %14) #9
  %16 = load ptr, ptr %10, align 8, !tbaa !28
  %17 = getelementptr inbounds nuw %struct.key_value_info, ptr %16, i32 0, i32 3
  %18 = load i32, ptr %17, align 8, !tbaa !30
  store i32 %18, ptr %14, align 4, !tbaa !4
  call void @llvm.lifetime.start.p0(i64 8, ptr %15) #9
  %19 = load i32, ptr %14, align 4, !tbaa !4
  %20 = call ptr @config_scope_name(i32 noundef %19)
  store ptr %20, ptr %15, align 8, !tbaa !8
  %21 = load ptr, ptr %8, align 8, !tbaa !8
  call void @strbuf_addstr(ptr noundef %12, ptr noundef %21)
  %22 = load ptr, ptr %9, align 8, !tbaa !8
  %23 = icmp ne ptr %22, null
  br i1 %23, label %24, label %26

24:                                               ; preds = %5
  %25 = load ptr, ptr %9, align 8, !tbaa !8
  call void (ptr, ptr, ...) @strbuf_addf(ptr noundef %12, ptr noundef @.str.51, ptr noundef %25)
  br label %26

26:                                               ; preds = %24, %5
  %27 = load ptr, ptr %15, align 8, !tbaa !8
  call void (ptr, ptr, ...) @strbuf_addf(ptr noundef %13, ptr noundef @.str.52, ptr noundef @.str.53, ptr noundef %27)
  %28 = load ptr, ptr %6, align 8, !tbaa !8
  %29 = load i32, ptr %7, align 4, !tbaa !4
  %30 = load ptr, ptr %11, align 8, !tbaa !8
  %31 = getelementptr inbounds nuw %struct.strbuf, ptr %13, i32 0, i32 2
  %32 = load ptr, ptr %31, align 8, !tbaa !32
  call void @perf_io_write_fl(ptr noundef %28, i32 noundef %29, ptr noundef %30, ptr noundef null, ptr noundef null, ptr noundef null, ptr noundef %32, ptr noundef %12)
  call void @strbuf_release(ptr noundef %12)
  call void @strbuf_release(ptr noundef %13)
  call void @llvm.lifetime.end.p0(i64 8, ptr %15) #9
  call void @llvm.lifetime.end.p0(i64 4, ptr %14) #9
  call void @llvm.lifetime.end.p0(i64 24, ptr %13) #9
  call void @llvm.lifetime.end.p0(i64 24, ptr %12) #9
  call void @llvm.lifetime.end.p0(i64 8, ptr %11) #9
  ret void
}