; Function Attrs: nounwind uwtable
define internal void @fn_param_fl(ptr noundef %0, i32 noundef %1, ptr noundef %2, ptr noundef %3, ptr noundef readonly captures(none) %4) #0 {
  %6 = alloca %struct.strbuf, align 8
  %7 = alloca %struct.strbuf, align 8
  call void @llvm.lifetime.start.p0(i64 24, ptr nonnull %6) #7
  call void @llvm.memcpy.p0.p0.i64(ptr noundef nonnull align 8 dereferenceable(24) %6, ptr noundef nonnull align 8 dereferenceable(24) @__const.fn_counter.buf_payload, i64 24, i1 false)
  call void @llvm.lifetime.start.p0(i64 24, ptr nonnull %7) #7
  call void @llvm.memcpy.p0.p0.i64(ptr noundef nonnull align 8 dereferenceable(24) %7, ptr noundef nonnull align 8 dereferenceable(24) @__const.fn_counter.buf_payload, i64 24, i1 false)
  %8 = getelementptr inbounds nuw i8, ptr %4, i64 16
  %9 = load i32, ptr %8, align 8, !tbaa !27
  %10 = tail call ptr @config_scope_name(i32 noundef %9) #7
  %11 = tail call i64 @strlen(ptr noundef nonnull dereferenceable(1) %2) #8
  call void @strbuf_add(ptr noundef nonnull %6, ptr noundef nonnull %2, i64 noundef %11) #7
  %.not = icmp eq ptr %3, null
  br i1 %.not, label %13, label %12

12:                                               ; preds = %5
  call void (ptr, ptr, ...) @strbuf_addf(ptr noundef nonnull %6, ptr noundef nonnull @.str.51, ptr noundef nonnull %3) #7
  br label %13

13:                                               ; preds = %12, %5
  call void (ptr, ptr, ...) @strbuf_addf(ptr noundef nonnull %7, ptr noundef nonnull @.str.52, ptr noundef nonnull @.str.53, ptr noundef %10) #7
  %14 = getelementptr inbounds nuw i8, ptr %7, i64 16
  %15 = load ptr, ptr %14, align 8, !tbaa !16
  call fastcc void @perf_io_write_fl(ptr noundef %0, i32 noundef %1, ptr noundef nonnull @.str.50, ptr noundef null, ptr noundef null, ptr noundef null, ptr noundef %15, ptr noundef %6)
  call void @strbuf_release(ptr noundef nonnull %6) #7
  call void @strbuf_release(ptr noundef nonnull %7) #7
  call void @llvm.lifetime.end.p0(i64 24, ptr nonnull %7) #7
  call void @llvm.lifetime.end.p0(i64 24, ptr nonnull %6) #7
  ret void
}